target datalayout = "e-m:e-p270:32:32-p271:32:32-p272:64:64-i64:64-i128:128-f80:128-n8:16:32:64-S128"
target triple = "x86_64-pc-linux-gnu"

%struct._object = type { %union.anon, ptr }
%union.anon = type { i64 }

@.str.15 = private unnamed_addr constant [7 x i8] c"incref\00", align 1
@_Py_NoneStruct = external global %struct._object, align 8
@interp_incref.kwlist = internal global [4 x ptr] [ptr @.str.33, ptr @.str.89, ptr @.str.34, ptr null], align 16
@.str.90 = private unnamed_addr constant [13 x i8] c"O|$pp:incref\00", align 1

; Function Attrs: nounwind uwtable
define internal ptr @interp_incref(ptr noundef %0, ptr noundef %1, ptr noundef %2) #0 {
  %4 = alloca ptr, align 8
  %5 = alloca ptr, align 8
  %6 = alloca ptr, align 8
  %7 = alloca ptr, align 8
  %8 = alloca ptr, align 8
  %9 = alloca i32, align 4
  %10 = alloca i32, align 4
  %11 = alloca i32, align 4
  %12 = alloca i32, align 4
  %13 = alloca ptr, align 8
  store ptr %0, ptr %5, align 8, !tbaa !3
  store ptr %1, ptr %6, align 8, !tbaa !3
  store ptr %2, ptr %7, align 8, !tbaa !3
  call void @llvm.lifetime.start.p0(i64 8, ptr %8) #8
  call void @llvm.lifetime.start.p0(i64 4, ptr %9) #8
  store i32 0, ptr %9, align 4, !tbaa !11
  call void @llvm.lifetime.start.p0(i64 4, ptr %10) #8
  store i32 0, ptr %10, align 4, !tbaa !11
  %14 = load ptr, ptr %6, align 8, !tbaa !3
  %15 = load ptr, ptr %7, align 8, !tbaa !3
  %16 = call i32 (ptr, ptr, ptr, ptr, ...) @PyArg_ParseTupleAndKeywords(ptr noundef %14, ptr noundef %15, ptr noundef @.str.90, ptr noundef @interp_incref.kwlist, ptr noundef %8, ptr noundef %9, ptr noundef %10)
  %17 = icmp ne i32 %16, 0
  br i1 %17, label %19, label %18

18:                                               ; preds = %3
  store ptr null, ptr %4, align 8
  store i32 1, ptr %11, align 4
  br label %35

19:                                               ; preds = %3
  call void @llvm.lifetime.start.p0(i64 4, ptr %12) #8
  store i32 1, ptr %12, align 4, !tbaa !11
  call void @llvm.lifetime.start.p0(i64 8, ptr %13) #8
  %20 = load ptr, ptr %8, align 8, !tbaa !3
  %21 = load i32, ptr %10, align 4, !tbaa !11
  %22 = load i32, ptr %12, align 4, !tbaa !11
  %23 = call ptr @resolve_interp(ptr noundef %20, i32 noundef %21, i32 noundef %22, ptr noundef @.str.15)
  store ptr %23, ptr %13, align 8, !tbaa !15
  %24 = load ptr, ptr %13, align 8, !tbaa !15
  %25 = icmp eq ptr %24, null
  br i1 %25, label %26, label %27

26:                                               ; preds = %19
  store ptr null, ptr %4, align 8
  store i32 1, ptr %11, align 4
  br label %34

27:                                               ; preds = %19
  %28 = load i32, ptr %9, align 4, !tbaa !11
  %29 = icmp ne i32 %28, 0
  br i1 %29, label %30, label %32

30:                                               ; preds = %27
  %31 = load ptr, ptr %13, align 8, !tbaa !15
  call void @_PyInterpreterState_RequireIDRef(ptr noundef %31, i32 noundef 1)
  br label %32

32:                                               ; preds = %30, %27
  %33 = load ptr, ptr %13, align 8, !tbaa !15
  call void @_PyInterpreterState_IDIncref(ptr noundef %33)
  store ptr @_Py_NoneStruct, ptr %4, align 8
  store i32 1, ptr %11, align 4
  br label %34

34:                                               ; preds = %32, %26
  call void @llvm.lifetime.end.p0(i64 8, ptr %13) #8
  call void @llvm.lifetime.end.p0(i64 4, ptr %12) #8
  br label %35

35:                                               ; preds = %34, %18
  call void @llvm.lifetime.end.p0(i64 4, ptr %10) #8
  call void @llvm.lifetime.end.p0(i64 4, ptr %9) #8
  call void @llvm.lifetime.end.p0(i64 8, ptr %8) #8
  %36 = load ptr, ptr %4, align 8
  ret ptr %36
}