; Function Attrs: nounwind uwtable
define internal noundef ptr @interp_incref(ptr readnone captures(none) %0, ptr noundef %1, ptr noundef %2) #0 {
  %4 = alloca ptr, align 8
  %5 = alloca i32, align 4
  %6 = alloca i32, align 4
  call void @llvm.lifetime.start.p0(i64 8, ptr nonnull %4) #7
  call void @llvm.lifetime.start.p0(i64 4, ptr nonnull %5) #7
  store i32 0, ptr %5, align 4, !tbaa !14
  call void @llvm.lifetime.start.p0(i64 4, ptr nonnull %6) #7
  store i32 0, ptr %6, align 4, !tbaa !14
  %7 = call i32 (ptr, ptr, ptr, ptr, ...) @PyArg_ParseTupleAndKeywords(ptr noundef %1, ptr noundef %2, ptr noundef nonnull @.str.90, ptr noundef nonnull @interp_incref.kwlist, ptr noundef nonnull %4, ptr noundef nonnull %5, ptr noundef nonnull %6) #7
  %.not = icmp eq i32 %7, 0
  br i1 %.not, label %17, label %8

8:                                                ; preds = %3
  %9 = load ptr, ptr %4, align 8, !tbaa !15
  %10 = load i32, ptr %6, align 4, !tbaa !14
  %11 = call fastcc ptr @resolve_interp(ptr noundef %9, i32 noundef %10, i32 noundef 1, ptr noundef nonnull @.str.15)
  %12 = icmp eq ptr %11, null
  br i1 %12, label %17, label %13

13:                                               ; preds = %8
  %14 = load i32, ptr %5, align 4, !tbaa !14
  %.not7 = icmp eq i32 %14, 0
  br i1 %.not7, label %16, label %15

15:                                               ; preds = %13
  call void @_PyInterpreterState_RequireIDRef(ptr noundef nonnull %11, i32 noundef 1) #7
  br label %16

16:                                               ; preds = %15, %13
  call void @_PyInterpreterState_IDIncref(ptr noundef nonnull %11) #7
  br label %17

17:                                               ; preds = %16, %8, %3
  %.0 = phi ptr [ null, %3 ], [ @_Py_NoneStruct, %16 ], [ null, %8 ]
  call void @llvm.lifetime.end.p0(i64 4, ptr nonnull %6) #7
  call void @llvm.lifetime.end.p0(i64 4, ptr nonnull %5) #7
  call void @llvm.lifetime.end.p0(i64 8, ptr nonnull %4) #7
  ret ptr %.0
}